; ModuleID = '7/1093.c'
source_filename = "7/1093.c"
target datalayout = "e-m:e-p270:32:32-p271:32:32-p272:64:64-i64:64-f80:128-n8:16:32:64-S128"
target triple = "x86_64-pc-linux-gnu"

@.str = private unnamed_addr constant [3 x i8] c"%s\00", align 1

; Function Attrs: noinline nounwind uwtable
define dso_local i32 @main() #0 {
  %1 = alloca i32, align 4
  %2 = alloca i32, align 4
  %3 = alloca i32, align 4
  %4 = alloca i32, align 4
  %5 = alloca i32, align 4
  %6 = alloca i32, align 4
  %7 = alloca [256 x i8], align 16
  %8 = alloca [256 x i8], align 16
  %9 = alloca [256 x i8], align 16
  store i32 0, i32* %1, align 4
  store i32 0, i32* %6, align 4
  %10 = getelementptr inbounds [256 x i8], [256 x i8]* %7, i64 0, i64 0
  %11 = call i32 (i8*, ...) @__isoc99_scanf(i8* getelementptr inbounds ([3 x i8], [3 x i8]* @.str, i64 0, i64 0), i8* %10)
  %12 = getelementptr inbounds [256 x i8], [256 x i8]* %8, i64 0, i64 0
  %13 = call i32 (i8*, ...) @__isoc99_scanf(i8* getelementptr inbounds ([3 x i8], [3 x i8]* @.str, i64 0, i64 0), i8* %12)
  %14 = getelementptr inbounds [256 x i8], [256 x i8]* %9, i64 0, i64 0
  %15 = call i32 (i8*, ...) @__isoc99_scanf(i8* getelementptr inbounds ([3 x i8], [3 x i8]* @.str, i64 0, i64 0), i8* %14)
  %16 = getelementptr inbounds [256 x i8], [256 x i8]* %7, i64 0, i64 0
  %17 = call i64 @strlen(i8* %16) #3
  %18 = trunc i64 %17 to i32
  store i32 %18, i32* %2, align 4
  %19 = getelementptr inbounds [256 x i8], [256 x i8]* %8, i64 0, i64 0
  %20 = call i64 @strlen(i8* %19) #3
  %21 = trunc i64 %20 to i32
  store i32 %21, i32* %3, align 4
  store i32 0, i32* %4, align 4
  br label %22

22:                                               ; preds = %93, %0
  %23 = load i32, i32* %4, align 4
  %24 = load i32, i32* %2, align 4
  %25 = icmp slt i32 %23, %24
  br i1 %25, label %26, label %96

26:                                               ; preds = %22
  %27 = load i32, i32* %4, align 4
  %28 = sext i32 %27 to i64
  %29 = getelementptr inbounds [256 x i8], [256 x i8]* %7, i64 0, i64 %28
  %30 = load i8, i8* %29, align 1
  %31 = sext i8 %30 to i32
  %32 = getelementptr inbounds [256 x i8], [256 x i8]* %8, i64 0, i64 0
  %33 = load i8, i8* %32, align 16
  %34 = sext i8 %33 to i32
  %35 = icmp eq i32 %31, %34
  br i1 %35, label %36, label %92

36:                                               ; preds = %26
  store i32 0, i32* %6, align 4
  %37 = load i32, i32* %4, align 4
  store i32 %37, i32* %5, align 4
  br label %38

38:                                               ; preds = %62, %36
  %39 = load i32, i32* %5, align 4
  %40 = load i32, i32* %4, align 4
  %41 = load i32, i32* %3, align 4
  %42 = add nsw i32 %40, %41
  %43 = icmp slt i32 %39, %42
  br i1 %43, label %44, label %65

44:                                               ; preds = %38
  %45 = load i32, i32* %5, align 4
  %46 = sext i32 %45 to i64
  %47 = getelementptr inbounds [256 x i8], [256 x i8]* %7, i64 0, i64 %46
  %48 = load i8, i8* %47, align 1
  %49 = sext i8 %48 to i32
  %50 = load i32, i32* %5, align 4
  %51 = load i32, i32* %4, align 4
  %52 = sub nsw i32 %50, %51
  %53 = sext i32 %52 to i64
  %54 = getelementptr inbounds [256 x i8], [256 x i8]* %8, i64 0, i64 %53
  %55 = load i8, i8* %54, align 1
  %56 = sext i8 %55 to i32
  %57 = icmp eq i32 %49, %56
  br i1 %57, label %58, label %61

58:                                               ; preds = %44
  %59 = load i32, i32* %6, align 4
  %60 = add nsw i32 %59, 1
  store i32 %60, i32* %6, align 4
  br label %61

61:                                               ; preds = %58, %44
  br label %62

62:                                               ; preds = %61
  %63 = load i32, i32* %5, align 4
  %64 = add nsw i32 %63, 1
  store i32 %64, i32* %5, align 4
  br label %38

65:                                               ; preds = %38
  %66 = load i32, i32* %6, align 4
  %67 = load i32, i32* %3, align 4
  %68 = icmp eq i32 %66, %67
  br i1 %68, label %69, label %91

69:                                               ; preds = %65
  %70 = load i32, i32* %4, align 4
  store i32 %70, i32* %5, align 4
  br label %71

71:                                               ; preds = %87, %69
  %72 = load i32, i32* %5, align 4
  %73 = load i32, i32* %4, align 4
  %74 = load i32, i32* %3, align 4
  %75 = add nsw i32 %73, %74
  %76 = icmp slt i32 %72, %75
  br i1 %76, label %77, label %90

77:                                               ; preds = %71
  %78 = load i32, i32* %5, align 4
  %79 = load i32, i32* %4, align 4
  %80 = sub nsw i32 %78, %79
  %81 = sext i32 %80 to i64
  %82 = getelementptr inbounds [256 x i8], [256 x i8]* %9, i64 0, i64 %81
  %83 = load i8, i8* %82, align 1
  %84 = load i32, i32* %5, align 4
  %85 = sext i32 %84 to i64
  %86 = getelementptr inbounds [256 x i8], [256 x i8]* %7, i64 0, i64 %85
  store i8 %83, i8* %86, align 1
  br label %87

87:                                               ; preds = %77
  %88 = load i32, i32* %5, align 4
  %89 = add nsw i32 %88, 1
  store i32 %89, i32* %5, align 4
  br label %71

90:                                               ; preds = %71
  br label %96

91:                                               ; preds = %65
  br label %92

92:                                               ; preds = %91, %26
  br label %93

93:                                               ; preds = %92
  %94 = load i32, i32* %4, align 4
  %95 = add nsw i32 %94, 1
  store i32 %95, i32* %4, align 4
  br label %22

96:                                               ; preds = %90, %22
  %97 = getelementptr inbounds [256 x i8], [256 x i8]* %7, i64 0, i64 0
  %98 = call i32 (i8*, ...) @printf(i8* getelementptr inbounds ([3 x i8], [3 x i8]* @.str, i64 0, i64 0), i8* %97)
  ret i32 0
}

declare dso_local i32 @__isoc99_scanf(i8*, ...) #1

; Function Attrs: nounwind readonly
declare dso_local i64 @strlen(i8*) #2

declare dso_local i32 @printf(i8*, ...) #1


!llvm.module.flags = !{!0}
!llvm.ident = !{!1}

!0 = !{i32 1, !"wchar_size", i32 4}
!1 = !{!"clang version 10.0.0-4ubuntu1 "}
